; ModuleID = '8/1370.c'
source_filename = "8/1370.c"
target datalayout = "e-m:e-p270:32:32-p271:32:32-p272:64:64-i64:64-f80:128-n8:16:32:64-S128"
target triple = "x86_64-pc-linux-gnu"

@.str = private unnamed_addr constant [3 x i8] c"%d\00", align 1
@.str.1 = private unnamed_addr constant [4 x i8] c" %d\00", align 1

; Function Attrs: noinline nounwind uwtable
define dso_local i32 @main() #0 {
  %1 = alloca i32, align 4
  %2 = alloca [100 x i32], align 16
  %3 = alloca [100 x i32], align 16
  %4 = alloca [200 x i32], align 16
  %5 = alloca i32, align 4
  %6 = alloca i32, align 4
  %7 = alloca i32, align 4
  %8 = alloca i32, align 4
  %9 = alloca i32, align 4
  %10 = alloca i32, align 4
  %11 = alloca i32, align 4
  store i32 0, i32* %1, align 4
  %12 = call i32 (i8*, ...) @__isoc99_scanf(i8* getelementptr inbounds ([3 x i8], [3 x i8]* @.str, i64 0, i64 0), i32* %6)
  %13 = call i32 (i8*, ...) @__isoc99_scanf(i8* getelementptr inbounds ([3 x i8], [3 x i8]* @.str, i64 0, i64 0), i32* %7)
  store i32 0, i32* %5, align 4
  br label %14

14:                                               ; preds = %23, %0
  %15 = load i32, i32* %5, align 4
  %16 = load i32, i32* %6, align 4
  %17 = icmp slt i32 %15, %16
  br i1 %17, label %18, label %26

18:                                               ; preds = %14
  %19 = load i32, i32* %5, align 4
  %20 = sext i32 %19 to i64
  %21 = getelementptr inbounds [100 x i32], [100 x i32]* %2, i64 0, i64 %20
  %22 = call i32 (i8*, ...) @__isoc99_scanf(i8* getelementptr inbounds ([3 x i8], [3 x i8]* @.str, i64 0, i64 0), i32* %21)
  br label %23

23:                                               ; preds = %18
  %24 = load i32, i32* %5, align 4
  %25 = add nsw i32 %24, 1
  store i32 %25, i32* %5, align 4
  br label %14

26:                                               ; preds = %14
  store i32 0, i32* %5, align 4
  br label %27

27:                                               ; preds = %36, %26
  %28 = load i32, i32* %5, align 4
  %29 = load i32, i32* %7, align 4
  %30 = icmp slt i32 %28, %29
  br i1 %30, label %31, label %39

31:                                               ; preds = %27
  %32 = load i32, i32* %5, align 4
  %33 = sext i32 %32 to i64
  %34 = getelementptr inbounds [100 x i32], [100 x i32]* %3, i64 0, i64 %33
  %35 = call i32 (i8*, ...) @__isoc99_scanf(i8* getelementptr inbounds ([3 x i8], [3 x i8]* @.str, i64 0, i64 0), i32* %34)
  br label %36

36:                                               ; preds = %31
  %37 = load i32, i32* %5, align 4
  %38 = add nsw i32 %37, 1
  store i32 %38, i32* %5, align 4
  br label %27

39:                                               ; preds = %27
  %40 = load i32, i32* %6, align 4
  %41 = sub nsw i32 %40, 2
  store i32 %41, i32* %5, align 4
  br label %42

42:                                               ; preds = %84, %39
  %43 = load i32, i32* %5, align 4
  %44 = icmp sge i32 %43, 0
  br i1 %44, label %45, label %87

45:                                               ; preds = %42
  store i32 0, i32* %8, align 4
  br label %46

46:                                               ; preds = %80, %45
  %47 = load i32, i32* %8, align 4
  %48 = load i32, i32* %5, align 4
  %49 = icmp sle i32 %47, %48
  br i1 %49, label %50, label %83

50:                                               ; preds = %46
  %51 = load i32, i32* %8, align 4
  %52 = sext i32 %51 to i64
  %53 = getelementptr inbounds [100 x i32], [100 x i32]* %2, i64 0, i64 %52
  %54 = load i32, i32* %53, align 4
  %55 = load i32, i32* %8, align 4
  %56 = add nsw i32 %55, 1
  %57 = sext i32 %56 to i64
  %58 = getelementptr inbounds [100 x i32], [100 x i32]* %2, i64 0, i64 %57
  %59 = load i32, i32* %58, align 4
  %60 = icmp sgt i32 %54, %59
  br i1 %60, label %61, label %79

61:                                               ; preds = %50
  %62 = load i32, i32* %8, align 4
  %63 = sext i32 %62 to i64
  %64 = getelementptr inbounds [100 x i32], [100 x i32]* %2, i64 0, i64 %63
  %65 = load i32, i32* %64, align 4
  store i32 %65, i32* %9, align 4
  %66 = load i32, i32* %8, align 4
  %67 = add nsw i32 %66, 1
  %68 = sext i32 %67 to i64
  %69 = getelementptr inbounds [100 x i32], [100 x i32]* %2, i64 0, i64 %68
  %70 = load i32, i32* %69, align 4
  %71 = load i32, i32* %8, align 4
  %72 = sext i32 %71 to i64
  %73 = getelementptr inbounds [100 x i32], [100 x i32]* %2, i64 0, i64 %72
  store i32 %70, i32* %73, align 4
  %74 = load i32, i32* %9, align 4
  %75 = load i32, i32* %8, align 4
  %76 = add nsw i32 %75, 1
  %77 = sext i32 %76 to i64
  %78 = getelementptr inbounds [100 x i32], [100 x i32]* %2, i64 0, i64 %77
  store i32 %74, i32* %78, align 4
  br label %79

79:                                               ; preds = %61, %50
  br label %80

80:                                               ; preds = %79
  %81 = load i32, i32* %8, align 4
  %82 = add nsw i32 %81, 1
  store i32 %82, i32* %8, align 4
  br label %46

83:                                               ; preds = %46
  br label %84

84:                                               ; preds = %83
  %85 = load i32, i32* %5, align 4
  %86 = add nsw i32 %85, -1
  store i32 %86, i32* %5, align 4
  br label %42

87:                                               ; preds = %42
  %88 = load i32, i32* %7, align 4
  %89 = sub nsw i32 %88, 2
  store i32 %89, i32* %5, align 4
  br label %90

90:                                               ; preds = %132, %87
  %91 = load i32, i32* %5, align 4
  %92 = icmp sge i32 %91, 0
  br i1 %92, label %93, label %135

93:                                               ; preds = %90
  store i32 0, i32* %8, align 4
  br label %94

94:                                               ; preds = %128, %93
  %95 = load i32, i32* %8, align 4
  %96 = load i32, i32* %5, align 4
  %97 = icmp sle i32 %95, %96
  br i1 %97, label %98, label %131

98:                                               ; preds = %94
  %99 = load i32, i32* %8, align 4
  %100 = sext i32 %99 to i64
  %101 = getelementptr inbounds [100 x i32], [100 x i32]* %3, i64 0, i64 %100
  %102 = load i32, i32* %101, align 4
  %103 = load i32, i32* %8, align 4
  %104 = add nsw i32 %103, 1
  %105 = sext i32 %104 to i64
  %106 = getelementptr inbounds [100 x i32], [100 x i32]* %3, i64 0, i64 %105
  %107 = load i32, i32* %106, align 4
  %108 = icmp sgt i32 %102, %107
  br i1 %108, label %109, label %127

109:                                              ; preds = %98
  %110 = load i32, i32* %8, align 4
  %111 = sext i32 %110 to i64
  %112 = getelementptr inbounds [100 x i32], [100 x i32]* %3, i64 0, i64 %111
  %113 = load i32, i32* %112, align 4
  store i32 %113, i32* %9, align 4
  %114 = load i32, i32* %8, align 4
  %115 = add nsw i32 %114, 1
  %116 = sext i32 %115 to i64
  %117 = getelementptr inbounds [100 x i32], [100 x i32]* %3, i64 0, i64 %116
  %118 = load i32, i32* %117, align 4
  %119 = load i32, i32* %8, align 4
  %120 = sext i32 %119 to i64
  %121 = getelementptr inbounds [100 x i32], [100 x i32]* %3, i64 0, i64 %120
  store i32 %118, i32* %121, align 4
  %122 = load i32, i32* %9, align 4
  %123 = load i32, i32* %8, align 4
  %124 = add nsw i32 %123, 1
  %125 = sext i32 %124 to i64
  %126 = getelementptr inbounds [100 x i32], [100 x i32]* %3, i64 0, i64 %125
  store i32 %122, i32* %126, align 4
  br label %127

127:                                              ; preds = %109, %98
  br label %128

128:                                              ; preds = %127
  %129 = load i32, i32* %8, align 4
  %130 = add nsw i32 %129, 1
  store i32 %130, i32* %8, align 4
  br label %94

131:                                              ; preds = %94
  br label %132

132:                                              ; preds = %131
  %133 = load i32, i32* %5, align 4
  %134 = add nsw i32 %133, -1
  store i32 %134, i32* %5, align 4
  br label %90

135:                                              ; preds = %90
  store i32 0, i32* %10, align 4
  br label %136

136:                                              ; preds = %148, %135
  %137 = load i32, i32* %10, align 4
  %138 = load i32, i32* %6, align 4
  %139 = icmp slt i32 %137, %138
  br i1 %139, label %140, label %151

140:                                              ; preds = %136
  %141 = load i32, i32* %10, align 4
  %142 = sext i32 %141 to i64
  %143 = getelementptr inbounds [100 x i32], [100 x i32]* %2, i64 0, i64 %142
  %144 = load i32, i32* %143, align 4
  %145 = load i32, i32* %10, align 4
  %146 = sext i32 %145 to i64
  %147 = getelementptr inbounds [200 x i32], [200 x i32]* %4, i64 0, i64 %146
  store i32 %144, i32* %147, align 4
  br label %148

148:                                              ; preds = %140
  %149 = load i32, i32* %10, align 4
  %150 = add nsw i32 %149, 1
  store i32 %150, i32* %10, align 4
  br label %136

151:                                              ; preds = %136
  %152 = load i32, i32* %6, align 4
  store i32 %152, i32* %10, align 4
  br label %153

153:                                              ; preds = %169, %151
  %154 = load i32, i32* %10, align 4
  %155 = load i32, i32* %6, align 4
  %156 = load i32, i32* %7, align 4
  %157 = add nsw i32 %155, %156
  %158 = icmp slt i32 %154, %157
  br i1 %158, label %159, label %172

159:                                              ; preds = %153
  %160 = load i32, i32* %10, align 4
  %161 = load i32, i32* %6, align 4
  %162 = sub nsw i32 %160, %161
  %163 = sext i32 %162 to i64
  %164 = getelementptr inbounds [100 x i32], [100 x i32]* %3, i64 0, i64 %163
  %165 = load i32, i32* %164, align 4
  %166 = load i32, i32* %10, align 4
  %167 = sext i32 %166 to i64
  %168 = getelementptr inbounds [200 x i32], [200 x i32]* %4, i64 0, i64 %167
  store i32 %165, i32* %168, align 4
  br label %169

169:                                              ; preds = %159
  %170 = load i32, i32* %10, align 4
  %171 = add nsw i32 %170, 1
  store i32 %171, i32* %10, align 4
  br label %153

172:                                              ; preds = %153
  %173 = getelementptr inbounds [200 x i32], [200 x i32]* %4, i64 0, i64 0
  %174 = load i32, i32* %173, align 16
  %175 = call i32 (i8*, ...) @printf(i8* getelementptr inbounds ([3 x i8], [3 x i8]* @.str, i64 0, i64 0), i32 %174)
  store i32 1, i32* %11, align 4
  br label %176

176:                                              ; preds = %188, %172
  %177 = load i32, i32* %11, align 4
  %178 = load i32, i32* %6, align 4
  %179 = load i32, i32* %7, align 4
  %180 = add nsw i32 %178, %179
  %181 = icmp slt i32 %177, %180
  br i1 %181, label %182, label %191

182:                                              ; preds = %176
  %183 = load i32, i32* %11, align 4
  %184 = sext i32 %183 to i64
  %185 = getelementptr inbounds [200 x i32], [200 x i32]* %4, i64 0, i64 %184
  %186 = load i32, i32* %185, align 4
  %187 = call i32 (i8*, ...) @printf(i8* getelementptr inbounds ([4 x i8], [4 x i8]* @.str.1, i64 0, i64 0), i32 %186)
  br label %188

188:                                              ; preds = %182
  %189 = load i32, i32* %11, align 4
  %190 = add nsw i32 %189, 1
  store i32 %190, i32* %11, align 4
  br label %176

191:                                              ; preds = %176
  %192 = load i32, i32* %1, align 4
  ret i32 %192
}

declare dso_local i32 @__isoc99_scanf(i8*, ...) #1

declare dso_local i32 @printf(i8*, ...) #1


!llvm.module.flags = !{!0}
!llvm.ident = !{!1}

!0 = !{i32 1, !"wchar_size", i32 4}
!1 = !{!"clang version 10.0.0-4ubuntu1 "}
